; Function Attrs: mustprogress uwtable
define internal void @_ZN10open_spiel12_GLOBAL__N_117StatefulRandomBot14StepWithPolicyERKNS_5StateE(ptr dead_on_unwind noalias nocapture writable sret(%"struct.std::pair.106") align 8 %0, ptr noundef nonnull align 8 dereferenceable(5024) %1, ptr nocapture nonnull readnone align 8 %2) unnamed_addr #3 align 2 personality ptr @__gxx_personality_v0 {
  %4 = getelementptr inbounds nuw i8, ptr %1, i64 5016
  %5 = load ptr, ptr %4, align 8
  tail call void @_ZN10open_spiel12_GLOBAL__N_116UniformRandomBot14StepWithPolicyERKNS_5StateE(ptr dead_on_unwind writable sret(%"struct.std::pair.106") align 8 %0, ptr noundef nonnull align 8 dereferenceable(5016) %1, ptr noundef nonnull align 8 dereferenceable(60) %5)
  %6 = load ptr, ptr %4, align 8
  %7 = getelementptr inbounds nuw i8, ptr %0, i64 24
  %8 = load i64, ptr %7, align 8
  %9 = load ptr, ptr %6, align 8
  %10 = getelementptr inbounds i8, ptr %9, i64 24
  %11 = load ptr, ptr %10, align 8
  invoke void %11(ptr noundef nonnull align 8 dereferenceable(60) %6, i64 noundef %8)
          to label %21 unwind label %12

12:                                               ; preds = %3
  %13 = landingpad { ptr, i32 }
          cleanup
  %14 = load ptr, ptr %0, align 8
  %.not.i.i.i.i = icmp eq ptr %14, null
  br i1 %.not.i.i.i.i, label %_ZNSt4pairISt6vectorIS_IldESaIS1_EElED2Ev.exit, label %15

15:                                               ; preds = %12
  %16 = getelementptr inbounds nuw i8, ptr %0, i64 16
  %17 = load ptr, ptr %16, align 8
  %18 = ptrtoint ptr %17 to i64
  %19 = ptrtoint ptr %14 to i64
  %20 = sub i64 %18, %19
  tail call void @_ZdlPvm(ptr noundef nonnull %14, i64 noundef %20) #24
  br label %_ZNSt4pairISt6vectorIS_IldESaIS1_EElED2Ev.exit

_ZNSt4pairISt6vectorIS_IldESaIS1_EElED2Ev.exit:   ; preds = %12, %15
  resume { ptr, i32 } %13

21:                                               ; preds = %3
  ret void
}